target datalayout = "e-m:e-p270:32:32-p271:32:32-p272:64:64-i64:64-i128:128-f80:128-n8:16:32:64-S128"
target triple = "x86_64-pc-linux-gnu"

%struct.DdManager = type { %struct.DdNode, ptr, ptr, ptr, ptr, ptr, ptr, ptr, i32, i32, double, double, double, i32, i32, i32, i32, i32, i32, ptr, ptr, %struct.DdSubtable, i32, i32, i32, i32, i32, i32, i32, double, i32, i32, i32, ptr, i64, double, i32, ptr, ptr, ptr, ptr, ptr, ptr, ptr, i32, ptr, ptr, ptr, ptr, ptr, ptr, i32, i32, i32, double, i32, i32, i32, i32, double, double, i32, i32, i32, i32, i32, i32, i32, i32, i32, ptr, ptr, i32, i32, i32, i32, i32, i32, ptr, ptr, ptr, ptr, ptr, ptr, ptr, ptr, i32, i64, i64, i64, i32, i64, i64, double, double, double, double, double, double, i32, ptr, ptr, i64 }
%struct.DdNode = type { i32, i32, ptr, %union.anon, i64 }
%union.anon = type { %struct.DdChildren }
%struct.DdChildren = type { ptr, ptr }
%struct.DdSubtable = type { ptr, i32, i32, i32, i32, i32, i32, i32, i32, i32, i32, i32 }

; Function Attrs: inlinehint nounwind uwtable
define internal i32 @ddIsIthAddVar(ptr noundef %0, ptr noundef %1, i32 noundef %2) #5 {
  %4 = alloca ptr, align 8
  %5 = alloca ptr, align 8
  %6 = alloca i32, align 4
  store ptr %0, ptr %4, align 8, !tbaa !3
  store ptr %1, ptr %5, align 8, !tbaa !8
  store i32 %2, ptr %6, align 4, !tbaa !10
  %7 = load ptr, ptr %5, align 8, !tbaa !8
  %8 = getelementptr inbounds nuw %struct.DdNode, ptr %7, i32 0, i32 0
  %9 = load i32, ptr %8, align 8, !tbaa !33
  %10 = load i32, ptr %6, align 4, !tbaa !10
  %11 = icmp eq i32 %9, %10
  br i1 %11, label %12, label %30

12:                                               ; preds = %3
  %13 = load ptr, ptr %5, align 8, !tbaa !8
  %14 = getelementptr inbounds nuw %struct.DdNode, ptr %13, i32 0, i32 3
  %15 = getelementptr inbounds nuw %struct.DdChildren, ptr %14, i32 0, i32 0
  %16 = load ptr, ptr %15, align 8, !tbaa !34
  %17 = load ptr, ptr %4, align 8, !tbaa !3
  %18 = getelementptr inbounds nuw %struct.DdManager, ptr %17, i32 0, i32 1
  %19 = load ptr, ptr %18, align 8, !tbaa !41
  %20 = icmp eq ptr %16, %19
  br i1 %20, label %21, label %30

21:                                               ; preds = %12
  %22 = load ptr, ptr %5, align 8, !tbaa !8
  %23 = getelementptr inbounds nuw %struct.DdNode, ptr %22, i32 0, i32 3
  %24 = getelementptr inbounds nuw %struct.DdChildren, ptr %23, i32 0, i32 1
  %25 = load ptr, ptr %24, align 8, !tbaa !34
  %26 = load ptr, ptr %4, align 8, !tbaa !3
  %27 = getelementptr inbounds nuw %struct.DdManager, ptr %26, i32 0, i32 2
  %28 = load ptr, ptr %27, align 8, !tbaa !42
  %29 = icmp eq ptr %25, %28
  br label %30

30:                                               ; preds = %21, %12, %3
  %31 = phi i1 [ false, %12 ], [ false, %3 ], [ %29, %21 ]
  %32 = zext i1 %31 to i32
  ret i32 %32
}

; Function Attrs: nounwind uwtable
define ptr @Cudd_addNonSimCompose(ptr noundef %0, ptr noundef %1, ptr noundef %2) #0 {
  %4 = alloca ptr, align 8
  %5 = alloca ptr, align 8
  %6 = alloca ptr, align 8
  %7 = alloca ptr, align 8
  %8 = alloca ptr, align 8
  %9 = alloca ptr, align 8
  %10 = alloca ptr, align 8
  %11 = alloca ptr, align 8
  %12 = alloca ptr, align 8
  %13 = alloca ptr, align 8
  %14 = alloca i32, align 4
  %15 = alloca i32, align 4
  %16 = alloca i32, align 4
  store ptr %0, ptr %5, align 8, !tbaa !3
  store ptr %1, ptr %6, align 8, !tbaa !8
  store ptr %2, ptr %7, align 8, !tbaa !44
  call void @llvm.lifetime.start.p0(i64 8, ptr %8) #6
  call void @llvm.lifetime.start.p0(i64 8, ptr %9) #6
  call void @llvm.lifetime.start.p0(i64 8, ptr %10) #6
  call void @llvm.lifetime.start.p0(i64 8, ptr %11) #6
  call void @llvm.lifetime.start.p0(i64 8, ptr %12) #6
  call void @llvm.lifetime.start.p0(i64 8, ptr %13) #6
  call void @llvm.lifetime.start.p0(i64 4, ptr %14) #6
  call void @llvm.lifetime.start.p0(i64 4, ptr %15) #6
  %17 = load ptr, ptr %5, align 8, !tbaa !3
  %18 = getelementptr inbounds nuw %struct.DdManager, ptr %17, i32 0, i32 1
  %19 = load ptr, ptr %18, align 8, !tbaa !41
  store ptr %19, ptr %9, align 8, !tbaa !8
  %20 = load ptr, ptr %9, align 8, !tbaa !8
  %21 = ptrtoint ptr %20 to i64
  %22 = and i64 %21, -2
  %23 = inttoptr i64 %22 to ptr
  %24 = getelementptr inbounds nuw %struct.DdNode, ptr %23, i32 0, i32 1
  %25 = load i32, ptr %24, align 4, !tbaa !35
  %26 = add i32 %25, 1
  store i32 %26, ptr %24, align 4, !tbaa !35
  %27 = load ptr, ptr %5, align 8, !tbaa !3
  %28 = getelementptr inbounds nuw %struct.DdManager, ptr %27, i32 0, i32 1
  %29 = load ptr, ptr %28, align 8, !tbaa !41
  store ptr %29, ptr %8, align 8, !tbaa !8
  %30 = load ptr, ptr %8, align 8, !tbaa !8
  %31 = ptrtoint ptr %30 to i64
  %32 = and i64 %31, -2
  %33 = inttoptr i64 %32 to ptr
  %34 = getelementptr inbounds nuw %struct.DdNode, ptr %33, i32 0, i32 1
  %35 = load i32, ptr %34, align 4, !tbaa !35
  %36 = add i32 %35, 1
  store i32 %36, ptr %34, align 4, !tbaa !35
  %37 = load ptr, ptr %5, align 8, !tbaa !3
  %38 = getelementptr inbounds nuw %struct.DdManager, ptr %37, i32 0, i32 15
  %39 = load i32, ptr %38, align 8, !tbaa !12
  %40 = sub nsw i32 %39, 1
  store i32 %40, ptr %14, align 4, !tbaa !10
  br label %41

41:                                               ; preds = %147, %3
  %42 = load i32, ptr %14, align 4, !tbaa !10
  %43 = icmp sge i32 %42, 0
  br i1 %43, label %44, label %150

44:                                               ; preds = %41
  %45 = load ptr, ptr %5, align 8, !tbaa !3
  %46 = load ptr, ptr %7, align 8, !tbaa !44
  %47 = load i32, ptr %14, align 4, !tbaa !10
  %48 = sext i32 %47 to i64
  %49 = getelementptr inbounds ptr, ptr %46, i64 %48
  %50 = load ptr, ptr %49, align 8, !tbaa !8
  %51 = load i32, ptr %14, align 4, !tbaa !10
  %52 = call i32 @ddIsIthAddVar(ptr noundef %45, ptr noundef %50, i32 noundef %51)
  %53 = icmp ne i32 %52, 0
  br i1 %53, label %54, label %55

54:                                               ; preds = %44
  br label %147

55:                                               ; preds = %44
  %56 = load ptr, ptr %5, align 8, !tbaa !3
  %57 = load i32, ptr %14, align 4, !tbaa !10
  %58 = call ptr @Cudd_addIthVar(ptr noundef %56, i32 noundef %57)
  store ptr %58, ptr %10, align 8, !tbaa !8
  %59 = load ptr, ptr %10, align 8, !tbaa !8
  %60 = icmp eq ptr %59, null
  br i1 %60, label %61, label %66

61:                                               ; preds = %55
  %62 = load ptr, ptr %5, align 8, !tbaa !3
  %63 = load ptr, ptr %9, align 8, !tbaa !8
  call void @Cudd_RecursiveDeref(ptr noundef %62, ptr noundef %63)
  %64 = load ptr, ptr %5, align 8, !tbaa !3
  %65 = load ptr, ptr %8, align 8, !tbaa !8
  call void @Cudd_RecursiveDeref(ptr noundef %64, ptr noundef %65)
  store ptr null, ptr %4, align 8
  store i32 1, ptr %16, align 4
  br label %218

66:                                               ; preds = %55
  %67 = load ptr, ptr %10, align 8, !tbaa !8
  %68 = ptrtoint ptr %67 to i64
  %69 = and i64 %68, -2
  %70 = inttoptr i64 %69 to ptr
  %71 = getelementptr inbounds nuw %struct.DdNode, ptr %70, i32 0, i32 1
  %72 = load i32, ptr %71, align 4, !tbaa !35
  %73 = add i32 %72, 1
  store i32 %73, ptr %71, align 4, !tbaa !35
  %74 = load ptr, ptr %5, align 8, !tbaa !3
  %75 = load ptr, ptr %10, align 8, !tbaa !8
  %76 = load ptr, ptr %8, align 8, !tbaa !8
  %77 = call ptr @Cudd_addApply(ptr noundef %74, ptr noundef @Cudd_addTimes, ptr noundef %75, ptr noundef %76)
  store ptr %77, ptr %11, align 8, !tbaa !8
  %78 = load ptr, ptr %11, align 8, !tbaa !8
  %79 = icmp eq ptr %78, null
  br i1 %79, label %80, label %87

80:                                               ; preds = %66
  %81 = load ptr, ptr %5, align 8, !tbaa !3
  %82 = load ptr, ptr %9, align 8, !tbaa !8
  call void @Cudd_RecursiveDeref(ptr noundef %81, ptr noundef %82)
  %83 = load ptr, ptr %5, align 8, !tbaa !3
  %84 = load ptr, ptr %8, align 8, !tbaa !8
  call void @Cudd_RecursiveDeref(ptr noundef %83, ptr noundef %84)
  %85 = load ptr, ptr %5, align 8, !tbaa !3
  %86 = load ptr, ptr %10, align 8, !tbaa !8
  call void @Cudd_RecursiveDeref(ptr noundef %85, ptr noundef %86)
  store ptr null, ptr %4, align 8
  store i32 1, ptr %16, align 4
  br label %218

87:                                               ; preds = %66
  %88 = load ptr, ptr %11, align 8, !tbaa !8
  %89 = ptrtoint ptr %88 to i64
  %90 = and i64 %89, -2
  %91 = inttoptr i64 %90 to ptr
  %92 = getelementptr inbounds nuw %struct.DdNode, ptr %91, i32 0, i32 1
  %93 = load i32, ptr %92, align 4, !tbaa !35
  %94 = add i32 %93, 1
  store i32 %94, ptr %92, align 4, !tbaa !35
  %95 = load ptr, ptr %5, align 8, !tbaa !3
  %96 = load ptr, ptr %8, align 8, !tbaa !8
  call void @Cudd_RecursiveDeref(ptr noundef %95, ptr noundef %96)
  %97 = load ptr, ptr %11, align 8, !tbaa !8
  store ptr %97, ptr %8, align 8, !tbaa !8
  %98 = load ptr, ptr %5, align 8, !tbaa !3
  %99 = load ptr, ptr %10, align 8, !tbaa !8
  %100 = load ptr, ptr %7, align 8, !tbaa !44
  %101 = load i32, ptr %14, align 4, !tbaa !10
  %102 = sext i32 %101 to i64
  %103 = getelementptr inbounds ptr, ptr %100, i64 %102
  %104 = load ptr, ptr %103, align 8, !tbaa !8
  %105 = call ptr @Cudd_addApply(ptr noundef %98, ptr noundef @Cudd_addXnor, ptr noundef %99, ptr noundef %104)
  store ptr %105, ptr %12, align 8, !tbaa !8
  %106 = load ptr, ptr %12, align 8, !tbaa !8
  %107 = icmp eq ptr %106, null
  br i1 %107, label %108, label %113

108:                                              ; preds = %87
  %109 = load ptr, ptr %5, align 8, !tbaa !3
  %110 = load ptr, ptr %9, align 8, !tbaa !8
  call void @Cudd_RecursiveDeref(ptr noundef %109, ptr noundef %110)
  %111 = load ptr, ptr %5, align 8, !tbaa !3
  %112 = load ptr, ptr %10, align 8, !tbaa !8
  call void @Cudd_RecursiveDeref(ptr noundef %111, ptr noundef %112)
  store ptr null, ptr %4, align 8
  store i32 1, ptr %16, align 4
  br label %218

113:                                              ; preds = %87
  %114 = load ptr, ptr %12, align 8, !tbaa !8
  %115 = ptrtoint ptr %114 to i64
  %116 = and i64 %115, -2
  %117 = inttoptr i64 %116 to ptr
  %118 = getelementptr inbounds nuw %struct.DdNode, ptr %117, i32 0, i32 1
  %119 = load i32, ptr %118, align 4, !tbaa !35
  %120 = add i32 %119, 1
  store i32 %120, ptr %118, align 4, !tbaa !35
  %121 = load ptr, ptr %5, align 8, !tbaa !3
  %122 = load ptr, ptr %10, align 8, !tbaa !8
  call void @Cudd_RecursiveDeref(ptr noundef %121, ptr noundef %122)
  %123 = load ptr, ptr %5, align 8, !tbaa !3
  %124 = load ptr, ptr %9, align 8, !tbaa !8
  %125 = load ptr, ptr %12, align 8, !tbaa !8
  %126 = call ptr @Cudd_addApply(ptr noundef %123, ptr noundef @Cudd_addTimes, ptr noundef %124, ptr noundef %125)
  store ptr %126, ptr %11, align 8, !tbaa !8
  %127 = load ptr, ptr %11, align 8, !tbaa !8
  %128 = icmp eq ptr %127, null
  br i1 %128, label %129, label %134

129:                                              ; preds = %113
  %130 = load ptr, ptr %5, align 8, !tbaa !3
  %131 = load ptr, ptr %9, align 8, !tbaa !8
  call void @Cudd_RecursiveDeref(ptr noundef %130, ptr noundef %131)
  %132 = load ptr, ptr %5, align 8, !tbaa !3
  %133 = load ptr, ptr %12, align 8, !tbaa !8
  call void @Cudd_RecursiveDeref(ptr noundef %132, ptr noundef %133)
  store ptr null, ptr %4, align 8
  store i32 1, ptr %16, align 4
  br label %218

134:                                              ; preds = %113
  %135 = load ptr, ptr %11, align 8, !tbaa !8
  %136 = ptrtoint ptr %135 to i64
  %137 = and i64 %136, -2
  %138 = inttoptr i64 %137 to ptr
  %139 = getelementptr inbounds nuw %struct.DdNode, ptr %138, i32 0, i32 1
  %140 = load i32, ptr %139, align 4, !tbaa !35
  %141 = add i32 %140, 1
  store i32 %141, ptr %139, align 4, !tbaa !35
  %142 = load ptr, ptr %5, align 8, !tbaa !3
  %143 = load ptr, ptr %9, align 8, !tbaa !8
  call void @Cudd_RecursiveDeref(ptr noundef %142, ptr noundef %143)
  %144 = load ptr, ptr %5, align 8, !tbaa !3
  %145 = load ptr, ptr %12, align 8, !tbaa !8
  call void @Cudd_RecursiveDeref(ptr noundef %144, ptr noundef %145)
  %146 = load ptr, ptr %11, align 8, !tbaa !8
  store ptr %146, ptr %9, align 8, !tbaa !8
  br label %147

147:                                              ; preds = %134, %54
  %148 = load i32, ptr %14, align 4, !tbaa !10
  %149 = add nsw i32 %148, -1
  store i32 %149, ptr %14, align 4, !tbaa !10
  br label %41, !llvm.loop !65

150:                                              ; preds = %41
  br label %151

151:                                              ; preds = %196, %150
  %152 = load ptr, ptr %5, align 8, !tbaa !3
  %153 = getelementptr inbounds nuw %struct.DdManager, ptr %152, i32 0, i32 15
  %154 = load i32, ptr %153, align 8, !tbaa !12
  %155 = sub nsw i32 %154, 1
  store i32 %155, ptr %15, align 4, !tbaa !10
  br label %156

156:                                              ; preds = %171, %151
  %157 = load i32, ptr %15, align 4, !tbaa !10
  %158 = icmp sge i32 %157, 0
  br i1 %158, label %159, label %174

159:                                              ; preds = %156
  %160 = load ptr, ptr %5, align 8, !tbaa !3
  %161 = load ptr, ptr %7, align 8, !tbaa !44
  %162 = load i32, ptr %15, align 4, !tbaa !10
  %163 = sext i32 %162 to i64
  %164 = getelementptr inbounds ptr, ptr %161, i64 %163
  %165 = load ptr, ptr %164, align 8, !tbaa !8
  %166 = load i32, ptr %15, align 4, !tbaa !10
  %167 = call i32 @ddIsIthAddVar(ptr noundef %160, ptr noundef %165, i32 noundef %166)
  %168 = icmp ne i32 %167, 0
  br i1 %168, label %170, label %169

169:                                              ; preds = %159
  br label %174

170:                                              ; preds = %159
  br label %171

171:                                              ; preds = %170
  %172 = load i32, ptr %15, align 4, !tbaa !10
  %173 = add nsw i32 %172, -1
  store i32 %173, ptr %15, align 4, !tbaa !10
  br label %156, !llvm.loop !66

174:                                              ; preds = %169, %156
  %175 = load ptr, ptr %5, align 8, !tbaa !3
  %176 = getelementptr inbounds nuw %struct.DdManager, ptr %175, i32 0, i32 55
  store i32 0, ptr %176, align 8, !tbaa !29
  %177 = load ptr, ptr %5, align 8, !tbaa !3
  %178 = load ptr, ptr %6, align 8, !tbaa !8
  %179 = load ptr, ptr %7, align 8, !tbaa !44
  %180 = load ptr, ptr %9, align 8, !tbaa !8
  %181 = load ptr, ptr %8, align 8, !tbaa !8
  %182 = load i32, ptr %15, align 4, !tbaa !10
  %183 = add nsw i32 %182, 1
  %184 = call ptr @cuddAddNonSimComposeRecur(ptr noundef %177, ptr noundef %178, ptr noundef %179, ptr noundef %180, ptr noundef %181, i32 noundef %183)
  store ptr %184, ptr %13, align 8, !tbaa !8
  %185 = load ptr, ptr %13, align 8, !tbaa !8
  %186 = icmp ne ptr %185, null
  br i1 %186, label %187, label %195

187:                                              ; preds = %174
  %188 = load ptr, ptr %13, align 8, !tbaa !8
  %189 = ptrtoint ptr %188 to i64
  %190 = and i64 %189, -2
  %191 = inttoptr i64 %190 to ptr
  %192 = getelementptr inbounds nuw %struct.DdNode, ptr %191, i32 0, i32 1
  %193 = load i32, ptr %192, align 4, !tbaa !35
  %194 = add i32 %193, 1
  store i32 %194, ptr %192, align 4, !tbaa !35
  br label %195

195:                                              ; preds = %187, %174
  br label %196

196:                                              ; preds = %195
  %197 = load ptr, ptr %5, align 8, !tbaa !3
  %198 = getelementptr inbounds nuw %struct.DdManager, ptr %197, i32 0, i32 55
  %199 = load i32, ptr %198, align 8, !tbaa !29
  %200 = icmp eq i32 %199, 1
  br i1 %200, label %151, label %201, !llvm.loop !67

201:                                              ; preds = %196
  %202 = load ptr, ptr %5, align 8, !tbaa !3
  %203 = load ptr, ptr %9, align 8, !tbaa !8
  call void @Cudd_RecursiveDeref(ptr noundef %202, ptr noundef %203)
  %204 = load ptr, ptr %5, align 8, !tbaa !3
  %205 = load ptr, ptr %8, align 8, !tbaa !8
  call void @Cudd_RecursiveDeref(ptr noundef %204, ptr noundef %205)
  %206 = load ptr, ptr %13, align 8, !tbaa !8
  %207 = icmp ne ptr %206, null
  br i1 %207, label %208, label %216

208:                                              ; preds = %201
  %209 = load ptr, ptr %13, align 8, !tbaa !8
  %210 = ptrtoint ptr %209 to i64
  %211 = and i64 %210, -2
  %212 = inttoptr i64 %211 to ptr
  %213 = getelementptr inbounds nuw %struct.DdNode, ptr %212, i32 0, i32 1
  %214 = load i32, ptr %213, align 4, !tbaa !35
  %215 = add i32 %214, -1
  store i32 %215, ptr %213, align 4, !tbaa !35
  br label %216

216:                                              ; preds = %208, %201
  %217 = load ptr, ptr %13, align 8, !tbaa !8
  store ptr %217, ptr %4, align 8
  store i32 1, ptr %16, align 4
  br label %218

218:                                              ; preds = %216, %129, %108, %80, %61
  call void @llvm.lifetime.end.p0(i64 4, ptr %15) #6
  call void @llvm.lifetime.end.p0(i64 4, ptr %14) #6
  call void @llvm.lifetime.end.p0(i64 8, ptr %13) #6
  call void @llvm.lifetime.end.p0(i64 8, ptr %12) #6
  call void @llvm.lifetime.end.p0(i64 8, ptr %11) #6
  call void @llvm.lifetime.end.p0(i64 8, ptr %10) #6
  call void @llvm.lifetime.end.p0(i64 8, ptr %9) #6
  call void @llvm.lifetime.end.p0(i64 8, ptr %8) #6
  %219 = load ptr, ptr %4, align 8
  ret ptr %219
}