; Function Attrs: nounwind uwtable
define ptr @Cudd_addNonSimCompose(ptr noundef %0, ptr noundef %1, ptr noundef readonly captures(none) %2) local_unnamed_addr #0 {
  %4 = getelementptr inbounds nuw i8, ptr %0, i64 40
  %5 = load ptr, ptr %4, align 8, !tbaa !36
  %6 = ptrtoint ptr %5 to i64
  %7 = and i64 %6, -2
  %8 = inttoptr i64 %7 to ptr
  %9 = getelementptr inbounds nuw i8, ptr %8, i64 4
  %10 = load i32, ptr %9, align 4, !tbaa !33
  %11 = add i32 %10, 2
  store i32 %11, ptr %9, align 4, !tbaa !33
  %12 = getelementptr inbounds nuw i8, ptr %0, i64 136
  %13 = load i32, ptr %12, align 8, !tbaa !3
  %14 = icmp sgt i32 %13, 0
  br i1 %14, label %.lr.ph, label %.preheader

.lr.ph:                                           ; preds = %3
  %15 = getelementptr inbounds nuw i8, ptr %0, i64 48
  %16 = zext nneg i32 %13 to i64
  br label %19

.preheader:                                       ; preds = %75, %3
  %.086.lcssa = phi ptr [ %5, %3 ], [ %.187, %75 ]
  %.085.lcssa = phi ptr [ %5, %3 ], [ %.1, %75 ]
  %17 = getelementptr inbounds nuw i8, ptr %0, i64 48
  %18 = getelementptr inbounds nuw i8, ptr %0, i64 448
  br label %77

19:                                               ; preds = %.lr.ph, %75
  %indvars.iv = phi i64 [ %16, %.lr.ph ], [ %indvars.iv.next, %75 ]
  %.085116 = phi ptr [ %5, %.lr.ph ], [ %.1, %75 ]
  %.086115 = phi ptr [ %5, %.lr.ph ], [ %.187, %75 ]
  %indvars.iv.next = add nsw i64 %indvars.iv, -1
  %20 = getelementptr inbounds nuw ptr, ptr %2, i64 %indvars.iv.next
  %21 = load ptr, ptr %20, align 8, !tbaa !25
  %22 = load i32, ptr %21, align 8, !tbaa !30
  %23 = zext i32 %22 to i64
  %24 = icmp eq i64 %indvars.iv.next, %23
  br i1 %24, label %25, label %ddIsIthAddVar.exit.thread

25:                                               ; preds = %19
  %26 = getelementptr inbounds nuw i8, ptr %21, i64 16
  %27 = load ptr, ptr %26, align 8, !tbaa !32
  %28 = load ptr, ptr %4, align 8, !tbaa !36
  %29 = icmp eq ptr %27, %28
  br i1 %29, label %ddIsIthAddVar.exit, label %ddIsIthAddVar.exit.thread

ddIsIthAddVar.exit:                               ; preds = %25
  %30 = getelementptr inbounds nuw i8, ptr %21, i64 24
  %31 = load ptr, ptr %30, align 8, !tbaa !32
  %32 = load ptr, ptr %15, align 8, !tbaa !37
  %.not99 = icmp eq ptr %31, %32
  br i1 %.not99, label %75, label %ddIsIthAddVar.exit.thread

ddIsIthAddVar.exit.thread:                        ; preds = %19, %25, %ddIsIthAddVar.exit
  %33 = trunc nuw nsw i64 %indvars.iv.next to i32
  %34 = tail call ptr @Cudd_addIthVar(ptr noundef %0, i32 noundef %33) #7
  %35 = icmp eq ptr %34, null
  br i1 %35, label %36, label %37

36:                                               ; preds = %ddIsIthAddVar.exit.thread
  tail call void @Cudd_RecursiveDeref(ptr noundef %0, ptr noundef %.086115) #7
  tail call void @Cudd_RecursiveDeref(ptr noundef %0, ptr noundef %.085116) #7
  br label %116

37:                                               ; preds = %ddIsIthAddVar.exit.thread
  %38 = ptrtoint ptr %34 to i64
  %39 = and i64 %38, -2
  %40 = inttoptr i64 %39 to ptr
  %41 = getelementptr inbounds nuw i8, ptr %40, i64 4
  %42 = load i32, ptr %41, align 4, !tbaa !33
  %43 = add i32 %42, 1
  store i32 %43, ptr %41, align 4, !tbaa !33
  %44 = tail call ptr @Cudd_addApply(ptr noundef %0, ptr noundef nonnull @Cudd_addTimes, ptr noundef nonnull %34, ptr noundef %.085116) #7
  %45 = icmp eq ptr %44, null
  br i1 %45, label %46, label %47

46:                                               ; preds = %37
  tail call void @Cudd_RecursiveDeref(ptr noundef %0, ptr noundef %.086115) #7
  tail call void @Cudd_RecursiveDeref(ptr noundef %0, ptr noundef %.085116) #7
  tail call void @Cudd_RecursiveDeref(ptr noundef %0, ptr noundef nonnull %34) #7
  br label %116

47:                                               ; preds = %37
  %48 = ptrtoint ptr %44 to i64
  %49 = and i64 %48, -2
  %50 = inttoptr i64 %49 to ptr
  %51 = getelementptr inbounds nuw i8, ptr %50, i64 4
  %52 = load i32, ptr %51, align 4, !tbaa !33
  %53 = add i32 %52, 1
  store i32 %53, ptr %51, align 4, !tbaa !33
  tail call void @Cudd_RecursiveDeref(ptr noundef %0, ptr noundef %.085116) #7
  %54 = load ptr, ptr %20, align 8, !tbaa !25
  %55 = tail call ptr @Cudd_addApply(ptr noundef %0, ptr noundef nonnull @Cudd_addXnor, ptr noundef nonnull %34, ptr noundef %54) #7
  %56 = icmp eq ptr %55, null
  br i1 %56, label %57, label %58

57:                                               ; preds = %47
  tail call void @Cudd_RecursiveDeref(ptr noundef %0, ptr noundef %.086115) #7
  tail call void @Cudd_RecursiveDeref(ptr noundef %0, ptr noundef nonnull %34) #7
  br label %116

58:                                               ; preds = %47
  %59 = ptrtoint ptr %55 to i64
  %60 = and i64 %59, -2
  %61 = inttoptr i64 %60 to ptr
  %62 = getelementptr inbounds nuw i8, ptr %61, i64 4
  %63 = load i32, ptr %62, align 4, !tbaa !33
  %64 = add i32 %63, 1
  store i32 %64, ptr %62, align 4, !tbaa !33
  tail call void @Cudd_RecursiveDeref(ptr noundef %0, ptr noundef nonnull %34) #7
  %65 = tail call ptr @Cudd_addApply(ptr noundef %0, ptr noundef nonnull @Cudd_addTimes, ptr noundef %.086115, ptr noundef nonnull %55) #7
  %66 = icmp eq ptr %65, null
  br i1 %66, label %67, label %68

67:                                               ; preds = %58
  tail call void @Cudd_RecursiveDeref(ptr noundef %0, ptr noundef %.086115) #7
  tail call void @Cudd_RecursiveDeref(ptr noundef %0, ptr noundef nonnull %55) #7
  br label %116

68:                                               ; preds = %58
  %69 = ptrtoint ptr %65 to i64
  %70 = and i64 %69, -2
  %71 = inttoptr i64 %70 to ptr
  %72 = getelementptr inbounds nuw i8, ptr %71, i64 4
  %73 = load i32, ptr %72, align 4, !tbaa !33
  %74 = add i32 %73, 1
  store i32 %74, ptr %72, align 4, !tbaa !33
  tail call void @Cudd_RecursiveDeref(ptr noundef %0, ptr noundef %.086115) #7
  tail call void @Cudd_RecursiveDeref(ptr noundef %0, ptr noundef nonnull %55) #7
  br label %75

75:                                               ; preds = %ddIsIthAddVar.exit, %68
  %.187 = phi ptr [ %.086115, %ddIsIthAddVar.exit ], [ %65, %68 ]
  %.1 = phi ptr [ %.085116, %ddIsIthAddVar.exit ], [ %44, %68 ]
  %76 = icmp samesign ugt i64 %indvars.iv, 1
  br i1 %76, label %19, label %.preheader, !llvm.loop !61

77:                                               ; preds = %.preheader, %105
  %78 = load i32, ptr %12, align 8, !tbaa !3
  %79 = zext i32 %78 to i64
  %smin = tail call i32 @llvm.smin.i32(i32 %78, i32 0)
  br label %80

80:                                               ; preds = %ddIsIthAddVar.exit96, %77
  %indvars.iv134 = phi i64 [ %81, %ddIsIthAddVar.exit96 ], [ %79, %77 ]
  %81 = add nsw i64 %indvars.iv134, -1
  %82 = trunc nuw i64 %indvars.iv134 to i32
  %83 = icmp sgt i32 %82, 0
  br i1 %83, label %84, label %ddIsIthAddVar.exit96.thread

84:                                               ; preds = %80
  %85 = getelementptr inbounds nuw ptr, ptr %2, i64 %81
  %86 = load ptr, ptr %85, align 8, !tbaa !25
  %87 = load i32, ptr %86, align 8, !tbaa !30
  %88 = zext i32 %87 to i64
  %.wide = icmp eq i64 %81, %88
  br i1 %.wide, label %89, label %ddIsIthAddVar.exit96.thread

89:                                               ; preds = %84
  %90 = getelementptr inbounds nuw i8, ptr %86, i64 16
  %91 = load ptr, ptr %90, align 8, !tbaa !32
  %92 = load ptr, ptr %4, align 8, !tbaa !36
  %93 = icmp eq ptr %91, %92
  br i1 %93, label %ddIsIthAddVar.exit96, label %ddIsIthAddVar.exit96.thread

ddIsIthAddVar.exit96:                             ; preds = %89
  %94 = getelementptr inbounds nuw i8, ptr %86, i64 24
  %95 = load ptr, ptr %94, align 8, !tbaa !32
  %96 = load ptr, ptr %17, align 8, !tbaa !37
  %.not = icmp eq ptr %95, %96
  br i1 %.not, label %80, label %ddIsIthAddVar.exit96.thread, !llvm.loop !62

ddIsIthAddVar.exit96.thread:                      ; preds = %84, %89, %ddIsIthAddVar.exit96, %80
  %.0.in.lcssa = phi i32 [ %82, %84 ], [ %82, %89 ], [ %82, %ddIsIthAddVar.exit96 ], [ %smin, %80 ]
  store i32 0, ptr %18, align 8, !tbaa !26
  %97 = tail call fastcc ptr @cuddAddNonSimComposeRecur(ptr noundef nonnull %0, ptr noundef %1, ptr noundef %2, ptr noundef %.086.lcssa, ptr noundef %.085.lcssa, i32 noundef %.0.in.lcssa)
  %.not94 = icmp eq ptr %97, null
  br i1 %.not94, label %105, label %98

98:                                               ; preds = %ddIsIthAddVar.exit96.thread
  %99 = ptrtoint ptr %97 to i64
  %100 = and i64 %99, -2
  %101 = inttoptr i64 %100 to ptr
  %102 = getelementptr inbounds nuw i8, ptr %101, i64 4
  %103 = load i32, ptr %102, align 4, !tbaa !33
  %104 = add i32 %103, 1
  store i32 %104, ptr %102, align 4, !tbaa !33
  br label %105

105:                                              ; preds = %ddIsIthAddVar.exit96.thread, %98
  %106 = load i32, ptr %18, align 8, !tbaa !26
  %107 = icmp eq i32 %106, 1
  br i1 %107, label %77, label %108, !llvm.loop !63

108:                                              ; preds = %105
  tail call void @Cudd_RecursiveDeref(ptr noundef nonnull %0, ptr noundef %.086.lcssa) #7
  tail call void @Cudd_RecursiveDeref(ptr noundef nonnull %0, ptr noundef %.085.lcssa) #7
  br i1 %.not94, label %116, label %109

109:                                              ; preds = %108
  %110 = ptrtoint ptr %97 to i64
  %111 = and i64 %110, -2
  %112 = inttoptr i64 %111 to ptr
  %113 = getelementptr inbounds nuw i8, ptr %112, i64 4
  %114 = load i32, ptr %113, align 4, !tbaa !33
  %115 = add i32 %114, -1
  store i32 %115, ptr %113, align 4, !tbaa !33
  br label %116

116:                                              ; preds = %108, %109, %67, %57, %46, %36
  %.084 = phi ptr [ null, %36 ], [ null, %46 ], [ null, %57 ], [ null, %67 ], [ %97, %109 ], [ null, %108 ]
  ret ptr %.084
}